; Function Attrs: mustprogress uwtable
define dso_local void @_ZN3ozz9animation8Skeleton10DeallocateEv(ptr nocapture noundef nonnull align 8 dereferenceable(48) %0) local_unnamed_addr #6 align 2 {
  %2 = tail call noundef ptr @_ZN3ozz6memory17default_allocatorEv()
  %3 = load ptr, ptr %0, align 8
  %4 = load ptr, ptr %2, align 8
  %5 = getelementptr inbounds i8, ptr %4, i64 24
  %6 = load ptr, ptr %5, align 8
  tail call void %6(ptr noundef nonnull align 8 dereferenceable(8) %2, ptr noundef %3)
  tail call void @llvm.memset.p0.i64(ptr noundef nonnull align 8 dereferenceable(48) %0, i8 0, i64 48, i1 false)
  ret void
}